; Function Attrs: mustprogress uwtable
define hidden noundef zeroext i1 @_ZNK4cvc58internal4prop13CadicalSolver7isFixedEm(ptr nocapture noundef nonnull readonly align 8 dereferenceable(144) %this, i64 noundef %var) unnamed_addr #3 align 2 {
entry:
  %d_propagator = getelementptr inbounds i8, ptr %this, i64 56
  %0 = load ptr, ptr %d_propagator, align 8
  %cmp.i.not = icmp eq ptr %0, null
  br i1 %cmp.i.not, label %if.end, label %if.then

if.then:                                          ; preds = %entry
  %d_var_info.i = getelementptr inbounds i8, ptr %0, i64 40
  %1 = load ptr, ptr %d_var_info.i, align 8
  %is_fixed.i = getelementptr inbounds %"struct.cvc5::internal::prop::CadicalPropagator::VarInfo", ptr %1, i64 %var, i32 3
  %2 = load i8, ptr %is_fixed.i, align 1
  %3 = and i8 %2, 1
  %tobool.i = icmp ne i8 %3, 0
  br label %return

if.end:                                           ; preds = %entry
  %d_solver = getelementptr inbounds i8, ptr %this, i64 24
  %4 = load ptr, ptr %d_solver, align 8
  %conv.i = trunc i64 %var to i32
  %call7 = tail call noundef i32 @_ZNK7CaDiCaL6Solver5fixedEi(ptr noundef nonnull align 8 dereferenceable(40) %4, i32 noundef %conv.i)
  %tobool = icmp ne i32 %call7, 0
  br label %return

return:                                           ; preds = %if.end, %if.then
  %retval.0 = phi i1 [ %tobool.i, %if.then ], [ %tobool, %if.end ]
  ret i1 %retval.0
}